target datalayout = "e-m:e-p270:32:32-p271:32:32-p272:64:64-i64:64-i128:128-f80:128-n8:16:32:64-S128"
target triple = "x86_64-pc-linux-gnu"

%struct.quic_stream_map_st = type { ptr, %struct.quic_stream_list_node_st, %struct.quic_stream_list_node_st, %struct.quic_stream_list_node_st, i64, i64, i64, i64, i64, ptr, ptr, ptr, ptr, ptr, i32 }
%struct.quic_stream_list_node_st = type { ptr, ptr }

; Function Attrs: nounwind uwtable
define internal ptr @list_next(ptr noundef %0, ptr noundef %1, i64 noundef %2) #0 {
  %4 = alloca ptr, align 8
  %5 = alloca ptr, align 8
  %6 = alloca ptr, align 8
  %7 = alloca i64, align 8
  store ptr %0, ptr %5, align 8, !tbaa !54
  store ptr %1, ptr %6, align 8, !tbaa !54
  store i64 %2, ptr %7, align 8, !tbaa !47
  %8 = load ptr, ptr %6, align 8, !tbaa !54
  %9 = getelementptr inbounds nuw %struct.quic_stream_list_node_st, ptr %8, i32 0, i32 1
  %10 = load ptr, ptr %9, align 8, !tbaa !55
  store ptr %10, ptr %6, align 8, !tbaa !54
  %11 = load ptr, ptr %6, align 8, !tbaa !54
  %12 = load ptr, ptr %5, align 8, !tbaa !54
  %13 = icmp eq ptr %11, %12
  br i1 %13, label %14, label %18

14:                                               ; preds = %3
  %15 = load ptr, ptr %6, align 8, !tbaa !54
  %16 = getelementptr inbounds nuw %struct.quic_stream_list_node_st, ptr %15, i32 0, i32 1
  %17 = load ptr, ptr %16, align 8, !tbaa !55
  store ptr %17, ptr %6, align 8, !tbaa !54
  br label %18

18:                                               ; preds = %14, %3
  %19 = load ptr, ptr %6, align 8, !tbaa !54
  %20 = load ptr, ptr %5, align 8, !tbaa !54
  %21 = icmp eq ptr %19, %20
  br i1 %21, label %22, label %23

22:                                               ; preds = %18
  store ptr null, ptr %4, align 8
  br label %28

23:                                               ; preds = %18
  %24 = load ptr, ptr %6, align 8, !tbaa !54
  %25 = load i64, ptr %7, align 8, !tbaa !47
  %26 = sub i64 0, %25
  %27 = getelementptr inbounds i8, ptr %24, i64 %26
  store ptr %27, ptr %4, align 8
  br label %28

28:                                               ; preds = %23, %22
  %29 = load ptr, ptr %4, align 8
  ret ptr %29
}

; Function Attrs: nounwind uwtable
define ptr @ossl_quic_stream_map_peek_accept_queue(ptr noundef %0) #0 {
  %2 = alloca ptr, align 8
  store ptr %0, ptr %2, align 8, !tbaa !3
  %3 = load ptr, ptr %2, align 8, !tbaa !3
  %4 = getelementptr inbounds nuw %struct.quic_stream_map_st, ptr %3, i32 0, i32 2
  %5 = load ptr, ptr %2, align 8, !tbaa !3
  %6 = getelementptr inbounds nuw %struct.quic_stream_map_st, ptr %5, i32 0, i32 2
  %7 = call ptr @list_next(ptr noundef %4, ptr noundef %6, i64 noundef 16)
  ret ptr %7
}