; Function Attrs: mustprogress nofree norecurse nosync nounwind willreturn memory(read, inaccessiblemem: none) uwtable
define ptr @ossl_quic_stream_map_peek_accept_queue(ptr noundef readonly captures(address) %0) local_unnamed_addr #6 {
  %2 = getelementptr inbounds nuw i8, ptr %0, i64 24
  %3 = getelementptr i8, ptr %0, i64 32
  %.val = load ptr, ptr %3, align 8, !tbaa !38
  %4 = icmp eq ptr %.val, %2
  br i1 %4, label %5, label %list_next.exit

5:                                                ; preds = %1
  %6 = getelementptr inbounds nuw i8, ptr %.val, i64 8
  %7 = load ptr, ptr %6, align 8, !tbaa !38
  br label %list_next.exit

list_next.exit:                                   ; preds = %1, %5
  %.08.i = phi ptr [ %7, %5 ], [ %.val, %1 ]
  %8 = icmp eq ptr %.08.i, %2
  %9 = getelementptr inbounds i8, ptr %.08.i, i64 -16
  %.0.i = select i1 %8, ptr null, ptr %9
  ret ptr %.0.i
}